target datalayout = "e-m:e-p270:32:32-p271:32:32-p272:64:64-i64:64-i128:128-f80:128-n8:16:32:64-S128"
target triple = "x86_64-pc-linux-gnu"

%"class.llvm::MCStreamer" = type { ptr, ptr, %"class.std::unique_ptr", %"class.std::vector", %"class.llvm::SmallVector", %"class.std::vector.2", ptr, i64, %"class.llvm::SmallVector.7", ptr, i32, i8, i8, ptr }
%"class.std::unique_ptr" = type { %"struct.std::__uniq_ptr_data" }
%"struct.std::__uniq_ptr_data" = type { %"class.std::__uniq_ptr_impl" }
%"class.std::__uniq_ptr_impl" = type { %"class.std::tuple" }
%"class.std::tuple" = type { %"struct.std::_Tuple_impl" }
%"struct.std::_Tuple_impl" = type { %"struct.std::_Head_base.1" }
%"struct.std::_Head_base.1" = type { ptr }
%"class.std::vector" = type { %"struct.std::_Vector_base" }
%"struct.std::_Vector_base" = type { %"struct.std::_Vector_base<llvm::MCDwarfFrameInfo, std::allocator<llvm::MCDwarfFrameInfo>>::_Vector_impl" }
%"struct.std::_Vector_base<llvm::MCDwarfFrameInfo, std::allocator<llvm::MCDwarfFrameInfo>>::_Vector_impl" = type { %"struct.std::_Vector_base<llvm::MCDwarfFrameInfo, std::allocator<llvm::MCDwarfFrameInfo>>::_Vector_impl_data" }
%"struct.std::_Vector_base<llvm::MCDwarfFrameInfo, std::allocator<llvm::MCDwarfFrameInfo>>::_Vector_impl_data" = type { ptr, ptr, ptr }
%"class.llvm::SmallVector" = type { %"class.llvm::SmallVectorImpl", %"struct.llvm::SmallVectorStorage" }
%"class.llvm::SmallVectorImpl" = type { %"class.llvm::SmallVectorTemplateBase" }
%"class.llvm::SmallVectorTemplateBase" = type { %"class.llvm::SmallVectorTemplateCommon" }
%"class.llvm::SmallVectorTemplateCommon" = type { %"class.llvm::SmallVectorBase" }
%"class.llvm::SmallVectorBase" = type { ptr, i32, i32 }
%"struct.llvm::SmallVectorStorage" = type { [16 x i8] }
%"class.std::vector.2" = type { %"struct.std::_Vector_base.3" }
%"struct.std::_Vector_base.3" = type { %"struct.std::_Vector_base<std::unique_ptr<llvm::WinEH::FrameInfo>, std::allocator<std::unique_ptr<llvm::WinEH::FrameInfo>>>::_Vector_impl" }
%"struct.std::_Vector_base<std::unique_ptr<llvm::WinEH::FrameInfo>, std::allocator<std::unique_ptr<llvm::WinEH::FrameInfo>>>::_Vector_impl" = type { %"struct.std::_Vector_base<std::unique_ptr<llvm::WinEH::FrameInfo>, std::allocator<std::unique_ptr<llvm::WinEH::FrameInfo>>>::_Vector_impl_data" }
%"struct.std::_Vector_base<std::unique_ptr<llvm::WinEH::FrameInfo>, std::allocator<std::unique_ptr<llvm::WinEH::FrameInfo>>>::_Vector_impl_data" = type { ptr, ptr, ptr }
%"class.llvm::SmallVector.7" = type { %"class.llvm::SmallVectorImpl.8", %"struct.llvm::SmallVectorStorage.11" }
%"class.llvm::SmallVectorImpl.8" = type { %"class.llvm::SmallVectorTemplateBase.9" }
%"class.llvm::SmallVectorTemplateBase.9" = type { %"class.llvm::SmallVectorTemplateCommon.10" }
%"class.llvm::SmallVectorTemplateCommon.10" = type { %"class.llvm::SmallVectorBase" }
%"struct.llvm::SmallVectorStorage.11" = type { [128 x i8] }

; Function Attrs: mustprogress nounwind uwtable
define linkonce_odr hidden noundef nonnull align 8 dereferenceable(8) ptr @_ZNSt10_Head_baseILm0EPN4llvm16MCTargetStreamerELb0EE7_M_headERKS3_(ptr noundef nonnull align 8 dereferenceable(8) %0) #0 comdat align 2 {
  %2 = alloca ptr, align 8
  store ptr %0, ptr %2, align 8
  %3 = load ptr, ptr %2, align 8
  %4 = getelementptr inbounds nuw %"struct.std::_Head_base.1", ptr %3, i32 0, i32 0
  ret ptr %4
}

; Function Attrs: mustprogress nounwind uwtable
define linkonce_odr hidden noundef nonnull align 8 dereferenceable(8) ptr @_ZNSt11_Tuple_implILm0EJPN4llvm16MCTargetStreamerESt14default_deleteIS1_EEE7_M_headERKS5_(ptr noundef nonnull align 8 dereferenceable(8) %0) #0 comdat align 2 {
  %2 = alloca ptr, align 8
  store ptr %0, ptr %2, align 8
  %3 = load ptr, ptr %2, align 8
  %4 = call noundef nonnull align 8 dereferenceable(8) ptr @_ZNSt10_Head_baseILm0EPN4llvm16MCTargetStreamerELb0EE7_M_headERKS3_(ptr noundef nonnull align 8 dereferenceable(8) %3) #12
  ret ptr %4
}

; Function Attrs: mustprogress nounwind uwtable
define linkonce_odr noundef nonnull align 8 dereferenceable(8) ptr @_ZSt12__get_helperILm0EPN4llvm16MCTargetStreamerEJSt14default_deleteIS1_EEERKT0_RKSt11_Tuple_implIXT_EJS5_DpT1_EE(ptr noundef nonnull align 8 dereferenceable(8) %0) #0 comdat {
  %2 = alloca ptr, align 8
  store ptr %0, ptr %2, align 8
  %3 = load ptr, ptr %2, align 8
  %4 = call noundef nonnull align 8 dereferenceable(8) ptr @_ZNSt11_Tuple_implILm0EJPN4llvm16MCTargetStreamerESt14default_deleteIS1_EEE7_M_headERKS5_(ptr noundef nonnull align 8 dereferenceable(8) %3) #12
  ret ptr %4
}

; Function Attrs: mustprogress nounwind uwtable
define linkonce_odr noundef nonnull align 8 dereferenceable(8) ptr @_ZSt3getILm0EJPN4llvm16MCTargetStreamerESt14default_deleteIS1_EEERKNSt13tuple_elementIXT_ESt5tupleIJDpT0_EEE4typeERKS9_(ptr noundef nonnull align 8 dereferenceable(8) %0) #0 comdat {
  %2 = alloca ptr, align 8
  store ptr %0, ptr %2, align 8
  %3 = load ptr, ptr %2, align 8
  %4 = call noundef nonnull align 8 dereferenceable(8) ptr @_ZSt12__get_helperILm0EPN4llvm16MCTargetStreamerEJSt14default_deleteIS1_EEERKT0_RKSt11_Tuple_implIXT_EJS5_DpT1_EE(ptr noundef nonnull align 8 dereferenceable(8) %3) #12
  ret ptr %4
}

; Function Attrs: mustprogress nounwind uwtable
define linkonce_odr hidden noundef ptr @_ZNKSt15__uniq_ptr_implIN4llvm16MCTargetStreamerESt14default_deleteIS1_EE6_M_ptrEv(ptr noundef nonnull align 8 dereferenceable(8) %0) #0 comdat align 2 {
  %2 = alloca ptr, align 8
  store ptr %0, ptr %2, align 8
  %3 = load ptr, ptr %2, align 8
  %4 = getelementptr inbounds nuw %"class.std::__uniq_ptr_impl", ptr %3, i32 0, i32 0
  %5 = call noundef nonnull align 8 dereferenceable(8) ptr @_ZSt3getILm0EJPN4llvm16MCTargetStreamerESt14default_deleteIS1_EEERKNSt13tuple_elementIXT_ESt5tupleIJDpT0_EEE4typeERKS9_(ptr noundef nonnull align 8 dereferenceable(8) %4) #12
  %6 = load ptr, ptr %5, align 8
  ret ptr %6
}

; Function Attrs: mustprogress nounwind uwtable
define linkonce_odr hidden noundef ptr @_ZNKSt10unique_ptrIN4llvm16MCTargetStreamerESt14default_deleteIS1_EE3getEv(ptr noundef nonnull align 8 dereferenceable(8) %0) #0 comdat align 2 {
  %2 = alloca ptr, align 8
  store ptr %0, ptr %2, align 8
  %3 = load ptr, ptr %2, align 8
  %4 = getelementptr inbounds nuw %"class.std::unique_ptr", ptr %3, i32 0, i32 0
  %5 = call noundef ptr @_ZNKSt15__uniq_ptr_implIN4llvm16MCTargetStreamerESt14default_deleteIS1_EE6_M_ptrEv(ptr noundef nonnull align 8 dereferenceable(8) %4) #12
  ret ptr %5
}

; Function Attrs: mustprogress nounwind uwtable
define linkonce_odr hidden noundef ptr @_ZN4llvm10MCStreamer17getTargetStreamerEv(ptr noundef nonnull align 8 dereferenceable(288) %0) #0 comdat align 2 {
  %2 = alloca ptr, align 8
  store ptr %0, ptr %2, align 8
  %3 = load ptr, ptr %2, align 8
  %4 = getelementptr inbounds nuw %"class.llvm::MCStreamer", ptr %3, i32 0, i32 2
  %5 = call noundef ptr @_ZNKSt10unique_ptrIN4llvm16MCTargetStreamerESt14default_deleteIS1_EE3getEv(ptr noundef nonnull align 8 dereferenceable(8) %4) #12
  ret ptr %5
}

; Function Attrs: mustprogress nounwind uwtable
define dso_local void @_ZN4llvm10MCStreamer14emitAssignmentEPNS_8MCSymbolEPKNS_6MCExprE(ptr noundef nonnull align 8 dereferenceable(288) %0, ptr noundef %1, ptr noundef %2) unnamed_addr #0 align 2 {
  %4 = alloca ptr, align 8
  %5 = alloca ptr, align 8
  %6 = alloca ptr, align 8
  %7 = alloca ptr, align 8
  store ptr %0, ptr %4, align 8
  store ptr %1, ptr %5, align 8
  store ptr %2, ptr %6, align 8
  %8 = load ptr, ptr %4, align 8
  %9 = load ptr, ptr %6, align 8
  call void @_ZN4llvm10MCStreamer13visitUsedExprERKNS_6MCExprE(ptr noundef nonnull align 8 dereferenceable(288) %8, ptr noundef nonnull align 8 dereferenceable(16) %9)
  %10 = load ptr, ptr %5, align 8
  %11 = load ptr, ptr %6, align 8
  call void @_ZN4llvm8MCSymbol16setVariableValueEPKNS_6MCExprE(ptr noundef nonnull align 8 dereferenceable(32) %10, ptr noundef %11)
  %12 = call noundef ptr @_ZN4llvm10MCStreamer17getTargetStreamerEv(ptr noundef nonnull align 8 dereferenceable(288) %8)
  store ptr %12, ptr %7, align 8
  %13 = load ptr, ptr %7, align 8
  %14 = icmp ne ptr %13, null
  br i1 %14, label %15, label %22

15:                                               ; preds = %3
  %16 = load ptr, ptr %7, align 8
  %17 = load ptr, ptr %5, align 8
  %18 = load ptr, ptr %6, align 8
  %19 = load ptr, ptr %16, align 8
  %20 = getelementptr inbounds ptr, ptr %19, i64 3
  %21 = load ptr, ptr %20, align 8
  call void %21(ptr noundef nonnull align 8 dereferenceable(16) %16, ptr noundef %17, ptr noundef %18)
  br label %22

22:                                               ; preds = %15, %3
  ret void
}