; Function Attrs: mustprogress nounwind uwtable
define dso_local void @_ZN4llvm10MCStreamer14emitAssignmentEPNS_8MCSymbolEPKNS_6MCExprE(ptr noundef nonnull align 8 dereferenceable(288) %0, ptr noundef %1, ptr noundef nonnull %2) unnamed_addr #0 align 2 {
  tail call void @_ZN4llvm10MCStreamer13visitUsedExprERKNS_6MCExprE(ptr noundef nonnull align 8 dereferenceable(288) %0, ptr noundef nonnull align 8 dereferenceable(16) %2)
  tail call void @_ZN4llvm8MCSymbol16setVariableValueEPKNS_6MCExprE(ptr noundef nonnull align 8 dereferenceable(32) %1, ptr noundef nonnull %2) #23
  %4 = getelementptr inbounds nuw i8, ptr %0, i64 16
  %5 = load ptr, ptr %4, align 8
  %.not = icmp eq ptr %5, null
  br i1 %.not, label %10, label %6

6:                                                ; preds = %3
  %7 = load ptr, ptr %5, align 8
  %8 = getelementptr inbounds i8, ptr %7, i64 24
  %9 = load ptr, ptr %8, align 8
  tail call void %9(ptr noundef nonnull align 8 dereferenceable(16) %5, ptr noundef nonnull %1, ptr noundef nonnull %2) #23
  br label %10

10:                                               ; preds = %6, %3
  ret void
}